; Function Attrs: mustprogress nofree norecurse nosync nounwind willreturn memory(read, inaccessiblemem: none) uwtable
define noundef range(i32 -2147483647, -2147483648) i32 @_ZNK6icu_7716BytesTrieBuilder21getLimitOfLinearMatchEiii(ptr noundef nonnull readonly align 8 captures(none) dereferenceable(56) %0, i32 noundef %1, i32 noundef %2, i32 noundef %3) unnamed_addr #14 align 2 {
  %5 = getelementptr inbounds nuw i8, ptr %0, i64 24
  %6 = load ptr, ptr %5, align 8, !tbaa !30
  %7 = sext i32 %1 to i64
  %8 = getelementptr inbounds %"class.icu_77::BytesTrieElement", ptr %6, i64 %7
  %9 = sext i32 %2 to i64
  %10 = getelementptr inbounds %"class.icu_77::BytesTrieElement", ptr %6, i64 %9
  %11 = getelementptr inbounds nuw i8, ptr %0, i64 16
  %12 = load ptr, ptr %11, align 8, !tbaa !23
  %13 = load i32, ptr %8, align 4, !tbaa !17
  %14 = icmp sgt i32 %13, -1
  br i1 %14, label %15, label %21

15:                                               ; preds = %4
  %16 = zext nneg i32 %13 to i64
  %17 = load ptr, ptr %12, align 8, !tbaa !3
  %18 = getelementptr inbounds nuw i8, ptr %17, i64 %16
  %19 = load i8, ptr %18, align 1, !tbaa !20
  %20 = zext i8 %19 to i32
  br label %_ZNK6icu_7716BytesTrieElement15getStringLengthERKNS_10CharStringE.exit

21:                                               ; preds = %4
  %22 = xor i32 %13, -1
  %23 = zext nneg i32 %22 to i64
  %24 = load ptr, ptr %12, align 8, !tbaa !3
  %25 = getelementptr inbounds nuw i8, ptr %24, i64 %23
  %26 = load i8, ptr %25, align 1, !tbaa !20
  %27 = zext i8 %26 to i32
  %28 = shl nuw nsw i32 %27, 8
  %29 = sub nsw i32 0, %13
  %30 = zext nneg i32 %29 to i64
  %31 = getelementptr inbounds nuw i8, ptr %24, i64 %30
  %32 = load i8, ptr %31, align 1, !tbaa !20
  %33 = zext i8 %32 to i32
  %34 = or disjoint i32 %28, %33
  br label %_ZNK6icu_7716BytesTrieElement15getStringLengthERKNS_10CharStringE.exit

_ZNK6icu_7716BytesTrieElement15getStringLengthERKNS_10CharStringE.exit: ; preds = %15, %21
  %35 = phi ptr [ %17, %15 ], [ %24, %21 ]
  %.0.i = phi i32 [ %20, %15 ], [ %34, %21 ]
  %.0.p.i.i = tail call i32 @llvm.abs.i32(i32 %13, i1 false)
  %.0.i.i = add nuw i32 %.0.p.i.i, 1
  %36 = zext nneg i32 %.0.i.i to i64
  %37 = sext i32 %3 to i64
  %38 = zext nneg i32 %.0.i to i64
  %39 = add i32 %3, 1
  %smax = tail call i32 @llvm.smax.i32(i32 %.0.i, i32 %39)
  %40 = getelementptr inbounds nuw i8, ptr %35, i64 %36
  br label %41

41:                                               ; preds = %43, %_ZNK6icu_7716BytesTrieElement15getStringLengthERKNS_10CharStringE.exit
  %indvars.iv = phi i64 [ %indvars.iv.next, %43 ], [ %37, %_ZNK6icu_7716BytesTrieElement15getStringLengthERKNS_10CharStringE.exit ]
  %indvars.iv.next = add nsw i64 %indvars.iv, 1
  %42 = icmp slt i64 %indvars.iv.next, %38
  br i1 %42, label %43, label %.critedge

43:                                               ; preds = %41
  %44 = getelementptr inbounds i8, ptr %40, i64 %indvars.iv.next
  %45 = load i8, ptr %44, align 1, !tbaa !20
  %46 = load i32, ptr %10, align 4, !tbaa !17
  %.0.p.i.i11 = tail call i32 @llvm.abs.i32(i32 %46, i1 false)
  %.0.i.i12 = add nuw i32 %.0.p.i.i11, 1
  %47 = zext nneg i32 %.0.i.i12 to i64
  %48 = getelementptr inbounds nuw i8, ptr %35, i64 %47
  %49 = getelementptr inbounds i8, ptr %48, i64 %indvars.iv.next
  %50 = load i8, ptr %49, align 1, !tbaa !20
  %51 = icmp eq i8 %45, %50
  br i1 %51, label %41, label %.critedge.split.loop.exit14, !llvm.loop !43

.critedge.split.loop.exit14:                      ; preds = %43
  %52 = trunc nsw i64 %indvars.iv.next to i32
  br label %.critedge

.critedge:                                        ; preds = %41, %.critedge.split.loop.exit14
  %.lcssa = phi i32 [ %52, %.critedge.split.loop.exit14 ], [ %smax, %41 ]
  ret i32 %.lcssa
}